target datalayout = "e-m:e-p270:32:32-p271:32:32-p272:64:64-i64:64-i128:128-f80:128-n8:16:32:64-S128"
target triple = "x86_64-pc-linux-gnu"

@docorrupt = internal global i32 0, align 4

; Function Attrs: nounwind uwtable
define internal i32 @on_packet_cipher_cb(ptr noundef %0, ptr noundef %1, ptr noundef %2, i64 noundef %3, ptr noundef %4) #0 {
  %6 = alloca i32, align 4
  %7 = alloca ptr, align 8
  %8 = alloca ptr, align 8
  %9 = alloca ptr, align 8
  %10 = alloca i64, align 8
  %11 = alloca ptr, align 8
  store ptr %0, ptr %7, align 8, !tbaa !19
  store ptr %1, ptr %8, align 8, !tbaa !21
  store ptr %2, ptr %9, align 8, !tbaa !4
  store i64 %3, ptr %10, align 8, !tbaa !17
  store ptr %4, ptr %11, align 8, !tbaa !23
  %12 = load i32, ptr @docorrupt, align 4, !tbaa !9
  %13 = icmp ne i32 %12, 0
  br i1 %13, label %14, label %17

14:                                               ; preds = %5
  %15 = load i64, ptr %10, align 8, !tbaa !17
  %16 = icmp eq i64 %15, 0
  br i1 %16, label %17, label %18

17:                                               ; preds = %14, %5
  store i32 1, ptr %6, align 4
  br label %29

18:                                               ; preds = %14
  %19 = load ptr, ptr %9, align 8, !tbaa !4
  %20 = call i32 @test_random()
  %21 = zext i32 %20 to i64
  %22 = load i64, ptr %10, align 8, !tbaa !17
  %23 = urem i64 %21, %22
  %24 = getelementptr inbounds nuw i8, ptr %19, i64 %23
  %25 = load i8, ptr %24, align 1, !tbaa !30
  %26 = zext i8 %25 to i32
  %27 = xor i32 %26, 255
  %28 = trunc i32 %27 to i8
  store i8 %28, ptr %24, align 1, !tbaa !30
  store i32 0, ptr @docorrupt, align 4, !tbaa !9
  store i32 1, ptr %6, align 4
  br label %29

29:                                               ; preds = %18, %17
  %30 = load i32, ptr %6, align 4
  ret i32 %30
}