; Function Attrs: nounwind uwtable
define internal noundef i32 @on_packet_cipher_cb(ptr readnone captures(none) %0, ptr readnone captures(none) %1, ptr noundef captures(none) %2, i64 noundef %3, ptr readnone captures(none) %4) #1 {
  %.b = load i1, ptr @docorrupt, align 4
  %6 = icmp ne i64 %3, 0
  %or.cond.not = and i1 %6, %.b
  br i1 %or.cond.not, label %7, label %14

7:                                                ; preds = %5
  %8 = tail call i32 @test_random() #4
  %9 = zext i32 %8 to i64
  %10 = urem i64 %9, %3
  %11 = getelementptr inbounds nuw i8, ptr %2, i64 %10
  %12 = load i8, ptr %11, align 1, !tbaa !21
  %13 = xor i8 %12, -1
  store i8 %13, ptr %11, align 1, !tbaa !21
  store i1 false, ptr @docorrupt, align 4
  br label %14

14:                                               ; preds = %5, %7
  ret i32 1
}